target datalayout = "e-m:e-p270:32:32-p271:32:32-p272:64:64-i64:64-i128:128-f80:128-n8:16:32:64-S128"
target triple = "x86_64-unknown-linux-gnu"

; Function Attrs: mustprogress nounwind uwtable
define internal void @_ZN5arrow8internalL16CastIntsInternalIlsEEvPKT_PT0_l(ptr noundef %src, ptr noundef %dest, i64 noundef %length) #0 {
entry:
  %src.addr = alloca ptr, align 8
  %dest.addr = alloca ptr, align 8
  %length.addr = alloca i64, align 8
  store ptr %src, ptr %src.addr, align 8
  store ptr %dest, ptr %dest.addr, align 8
  store i64 %length, ptr %length.addr, align 8
  br label %while.cond

while.cond:                                       ; preds = %while.body, %entry
  %0 = load i64, ptr %length.addr, align 8
  %cmp = icmp sge i64 %0, 4
  br i1 %cmp, label %while.body, label %while.end

while.body:                                       ; preds = %while.cond
  %1 = load ptr, ptr %src.addr, align 8
  %arrayidx = getelementptr inbounds i64, ptr %1, i64 0
  %2 = load i64, ptr %arrayidx, align 8
  %conv = trunc i64 %2 to i16
  %3 = load ptr, ptr %dest.addr, align 8
  %arrayidx1 = getelementptr inbounds i16, ptr %3, i64 0
  store i16 %conv, ptr %arrayidx1, align 2
  %4 = load ptr, ptr %src.addr, align 8
  %arrayidx2 = getelementptr inbounds i64, ptr %4, i64 1
  %5 = load i64, ptr %arrayidx2, align 8
  %conv3 = trunc i64 %5 to i16
  %6 = load ptr, ptr %dest.addr, align 8
  %arrayidx4 = getelementptr inbounds i16, ptr %6, i64 1
  store i16 %conv3, ptr %arrayidx4, align 2
  %7 = load ptr, ptr %src.addr, align 8
  %arrayidx5 = getelementptr inbounds i64, ptr %7, i64 2
  %8 = load i64, ptr %arrayidx5, align 8
  %conv6 = trunc i64 %8 to i16
  %9 = load ptr, ptr %dest.addr, align 8
  %arrayidx7 = getelementptr inbounds i16, ptr %9, i64 2
  store i16 %conv6, ptr %arrayidx7, align 2
  %10 = load ptr, ptr %src.addr, align 8
  %arrayidx8 = getelementptr inbounds i64, ptr %10, i64 3
  %11 = load i64, ptr %arrayidx8, align 8
  %conv9 = trunc i64 %11 to i16
  %12 = load ptr, ptr %dest.addr, align 8
  %arrayidx10 = getelementptr inbounds i16, ptr %12, i64 3
  store i16 %conv9, ptr %arrayidx10, align 2
  %13 = load i64, ptr %length.addr, align 8
  %sub = sub nsw i64 %13, 4
  store i64 %sub, ptr %length.addr, align 8
  %14 = load ptr, ptr %src.addr, align 8
  %add.ptr = getelementptr inbounds i64, ptr %14, i64 4
  store ptr %add.ptr, ptr %src.addr, align 8
  %15 = load ptr, ptr %dest.addr, align 8
  %add.ptr11 = getelementptr inbounds i16, ptr %15, i64 4
  store ptr %add.ptr11, ptr %dest.addr, align 8
  br label %while.cond, !llvm.loop !151

while.end:                                        ; preds = %while.cond
  br label %while.cond12

while.cond12:                                     ; preds = %while.body14, %while.end
  %16 = load i64, ptr %length.addr, align 8
  %cmp13 = icmp sgt i64 %16, 0
  br i1 %cmp13, label %while.body14, label %while.end17

while.body14:                                     ; preds = %while.cond12
  %17 = load ptr, ptr %src.addr, align 8
  %incdec.ptr = getelementptr inbounds i64, ptr %17, i32 1
  store ptr %incdec.ptr, ptr %src.addr, align 8
  %18 = load i64, ptr %17, align 8
  %conv15 = trunc i64 %18 to i16
  %19 = load ptr, ptr %dest.addr, align 8
  %incdec.ptr16 = getelementptr inbounds i16, ptr %19, i32 1
  store ptr %incdec.ptr16, ptr %dest.addr, align 8
  store i16 %conv15, ptr %19, align 2
  %20 = load i64, ptr %length.addr, align 8
  %dec = add nsw i64 %20, -1
  store i64 %dec, ptr %length.addr, align 8
  br label %while.cond12, !llvm.loop !152

while.end17:                                      ; preds = %while.cond12
  ret void
}

; Function Attrs: mustprogress uwtable
define void @_ZN5arrow8internal12DowncastIntsEPKlPsl(ptr noundef %source, ptr noundef %dest, i64 noundef %length) #1 {
entry:
  %source.addr = alloca ptr, align 8
  %dest.addr = alloca ptr, align 8
  %length.addr = alloca i64, align 8
  store ptr %source, ptr %source.addr, align 8
  store ptr %dest, ptr %dest.addr, align 8
  store i64 %length, ptr %length.addr, align 8
  %0 = load ptr, ptr %source.addr, align 8
  %1 = load ptr, ptr %dest.addr, align 8
  %2 = load i64, ptr %length.addr, align 8
  call void @_ZN5arrow8internalL16CastIntsInternalIlsEEvPKT_PT0_l(ptr noundef %0, ptr noundef %1, i64 noundef %2)
  ret void
}